; Function Attrs: nounwind uwtable
define zeroext range(i8 0, 2) i8 @l_Lake_RBArray_any___rarg(ptr noundef %0, ptr noundef readonly captures(none) %1) local_unnamed_addr #0 {
lean_nat_lt.exit:
  %2 = getelementptr inbounds nuw i8, ptr %1, i64 16
  %3 = load ptr, ptr %2, align 8, !tbaa !4
  %4 = getelementptr i8, ptr %3, i64 8
  %.val = load i64, ptr %4, align 8, !tbaa !14
  %.mask = and i64 %.val, 9223372036854775807
  %.not = icmp eq i64 %.mask, 0
  br i1 %.not, label %lean_dec.exit16, label %lean_dec.exit

lean_dec.exit16:                                  ; preds = %lean_nat_lt.exit
  %5 = ptrtoint ptr %0 to i64
  %6 = and i64 %5, 1
  %.not22 = icmp eq i64 %6, 0
  br i1 %.not22, label %7, label %lean_dec.exit15

7:                                                ; preds = %lean_dec.exit16
  %8 = load i32, ptr %0, align 4, !tbaa !8
  %9 = icmp sgt i32 %8, 1
  br i1 %9, label %10, label %12, !prof !13

10:                                               ; preds = %7
  %11 = add nsw i32 %8, -1
  store i32 %11, ptr %0, align 4, !tbaa !8
  br label %lean_dec.exit15

12:                                               ; preds = %7
  %.not.i17 = icmp eq i32 %8, 0
  br i1 %.not.i17, label %lean_dec.exit15, label %13

13:                                               ; preds = %12
  tail call void @lean_dec_ref_cold(ptr noundef nonnull %0) #4
  br label %lean_dec.exit15

lean_dec.exit:                                    ; preds = %lean_nat_lt.exit
  %14 = tail call zeroext i8 @l_Array_anyMUnsafe_any___at_Lake_RBArray_any___spec__1___rarg(ptr noundef %0, ptr noundef nonnull %3, i64 noundef 0, i64 noundef %.mask)
  br label %lean_dec.exit15

lean_dec.exit15:                                  ; preds = %lean_dec.exit16, %10, %12, %13, %lean_dec.exit
  %.0 = phi i8 [ %14, %lean_dec.exit ], [ 0, %13 ], [ 0, %12 ], [ 0, %10 ], [ 0, %lean_dec.exit16 ]
  ret i8 %.0
}